; Function Attrs: nounwind sspstrong uwtable
define internal fastcc noundef ptr @rb_node_in_new(ptr noundef captures(none) %0, ptr noundef %1, ptr noundef %2, ptr noundef %3, ptr noundef nonnull readonly captures(none) %4) unnamed_addr #0 {
  %6 = getelementptr i8, ptr %0, i64 288
  %.val.i = load ptr, ptr %6, align 8, !tbaa !120
  %7 = tail call ptr @rb_ast_newnode(ptr noundef %.val.i, i32 noundef range(i32 0, 115) 8, i64 noundef range(i64 32, 129) 56, i64 noundef 8) #31
  tail call void @rb_node_init(ptr noundef %7, i32 noundef range(i32 0, 115) 8) #31
  %8 = getelementptr inbounds nuw i8, ptr %7, i64 8
  tail call void @llvm.memcpy.p0.p0.i64(ptr noundef nonnull align 8 dereferenceable(16) %8, ptr noundef nonnull readonly align 4 dereferenceable(16) %4, i64 16, i1 false), !tbaa.struct !11
  %9 = load i32, ptr %4, align 4, !tbaa !51
  %10 = sext i32 %9 to i64
  %11 = load i64, ptr %7, align 8, !tbaa !61
  %12 = and i64 %11, 32767
  %13 = shl nsw i64 %10, 15
  %14 = or disjoint i64 %12, %13
  store i64 %14, ptr %7, align 8, !tbaa !61
  %15 = getelementptr inbounds nuw i8, ptr %0, i64 296
  %16 = load i32, ptr %15, align 8, !tbaa !192
  %17 = add nsw i32 %16, 1
  store i32 %17, ptr %15, align 8, !tbaa !192
  %18 = getelementptr inbounds nuw i8, ptr %7, i64 24
  store i32 %16, ptr %18, align 8, !tbaa !193
  %19 = getelementptr inbounds nuw i8, ptr %7, i64 32
  store ptr %1, ptr %19, align 8, !tbaa !295
  %20 = getelementptr inbounds nuw i8, ptr %7, i64 40
  store ptr %2, ptr %20, align 8, !tbaa !297
  %21 = getelementptr inbounds nuw i8, ptr %7, i64 48
  store ptr %3, ptr %21, align 8, !tbaa !298
  ret ptr %7
}